target datalayout = "e-m:e-p270:32:32-p271:32:32-p272:64:64-i64:64-i128:128-f80:128-n8:16:32:64-S128"
target triple = "x86_64-pc-linux-gnu"

@.str.8 = private unnamed_addr constant [11 x i8] c"__tostring\00", align 1

; Function Attrs: nounwind uwtable
define internal i32 @traceback(ptr noundef %0) #0 {
  %2 = alloca i32, align 4
  %3 = alloca ptr, align 8
  store ptr %0, ptr %3, align 8, !tbaa !14
  %4 = load ptr, ptr %3, align 8, !tbaa !14
  %5 = call i32 @lua_isstring(ptr noundef %4, i32 noundef 1)
  %6 = icmp ne i32 %5, 0
  br i1 %6, label %22, label %7

7:                                                ; preds = %1
  %8 = load ptr, ptr %3, align 8, !tbaa !14
  %9 = call i32 @lua_type(ptr noundef %8, i32 noundef 1)
  %10 = icmp sle i32 %9, 0
  br i1 %10, label %19, label %11

11:                                               ; preds = %7
  %12 = load ptr, ptr %3, align 8, !tbaa !14
  %13 = call i32 @luaL_callmeta(ptr noundef %12, i32 noundef 1, ptr noundef @.str.8)
  %14 = icmp ne i32 %13, 0
  br i1 %14, label %15, label %19

15:                                               ; preds = %11
  %16 = load ptr, ptr %3, align 8, !tbaa !14
  %17 = call i32 @lua_isstring(ptr noundef %16, i32 noundef -1)
  %18 = icmp ne i32 %17, 0
  br i1 %18, label %20, label %19

19:                                               ; preds = %15, %11, %7
  store i32 1, ptr %2, align 4
  br label %27

20:                                               ; preds = %15
  %21 = load ptr, ptr %3, align 8, !tbaa !14
  call void @lua_remove(ptr noundef %21, i32 noundef 1)
  br label %22

22:                                               ; preds = %20, %1
  %23 = load ptr, ptr %3, align 8, !tbaa !14
  %24 = load ptr, ptr %3, align 8, !tbaa !14
  %25 = load ptr, ptr %3, align 8, !tbaa !14
  %26 = call ptr @lua_tolstring(ptr noundef %25, i32 noundef 1, ptr noundef null)
  call void @luaL_traceback(ptr noundef %23, ptr noundef %24, ptr noundef %26, i32 noundef 1)
  store i32 1, ptr %2, align 4
  br label %27

27:                                               ; preds = %22, %19
  %28 = load i32, ptr %2, align 4
  ret i32 %28
}