; Function Attrs: nounwind uwtable
define internal noundef i32 @traceback(ptr noundef %0) #0 {
  %2 = tail call i32 @lua_isstring(ptr noundef %0, i32 noundef 1) #9
  %.not = icmp eq i32 %2, 0
  br i1 %.not, label %3, label %11

3:                                                ; preds = %1
  %4 = tail call i32 @lua_type(ptr noundef %0, i32 noundef 1) #9
  %5 = icmp slt i32 %4, 1
  br i1 %5, label %13, label %6

6:                                                ; preds = %3
  %7 = tail call i32 @luaL_callmeta(ptr noundef %0, i32 noundef 1, ptr noundef nonnull @.str.8) #9
  %.not8 = icmp eq i32 %7, 0
  br i1 %.not8, label %13, label %8

8:                                                ; preds = %6
  %9 = tail call i32 @lua_isstring(ptr noundef %0, i32 noundef -1) #9
  %.not9 = icmp eq i32 %9, 0
  br i1 %.not9, label %13, label %10

10:                                               ; preds = %8
  tail call void @lua_remove(ptr noundef %0, i32 noundef 1) #9
  br label %11

11:                                               ; preds = %10, %1
  %12 = tail call ptr @lua_tolstring(ptr noundef %0, i32 noundef 1, ptr noundef null) #9
  tail call void @luaL_traceback(ptr noundef %0, ptr noundef %0, ptr noundef %12, i32 noundef 1) #9
  br label %13

13:                                               ; preds = %3, %6, %8, %11
  ret i32 1
}